target datalayout = "e-m:e-p270:32:32-p271:32:32-p272:64:64-i64:64-i128:128-f80:128-n8:16:32:64-S128"
target triple = "x86_64-pc-linux-gnu"

%struct.jv = type { i8, i8, i16, i32, %union.anon }
%union.anon = type { ptr }
%struct.jv_refcnt = type { i32 }
%struct.jvp_string = type { %struct.jv_refcnt, i32, i32, i32, [0 x i8] }

; Function Attrs: nounwind uwtable
define internal i32 @rotl32(i32 noundef %0, i8 noundef signext %1) #0 {
  %3 = alloca i32, align 4
  %4 = alloca i8, align 1
  store i32 %0, ptr %3, align 4, !tbaa !10
  store i8 %1, ptr %4, align 1, !tbaa !12
  %5 = load i32, ptr %3, align 4, !tbaa !10
  %6 = load i8, ptr %4, align 1, !tbaa !12
  %7 = sext i8 %6 to i32
  %8 = shl i32 %5, %7
  %9 = load i32, ptr %3, align 4, !tbaa !10
  %10 = load i8, ptr %4, align 1, !tbaa !12
  %11 = sext i8 %10 to i32
  %12 = sub nsw i32 32, %11
  %13 = lshr i32 %9, %12
  %14 = or i32 %8, %13
  ret i32 %14
}

; Function Attrs: nounwind uwtable
define internal i32 @jvp_string_length(ptr noundef %0) #0 {
  %2 = alloca ptr, align 8
  store ptr %0, ptr %2, align 8, !tbaa !14
  %3 = load ptr, ptr %2, align 8, !tbaa !14
  %4 = getelementptr inbounds nuw %struct.jvp_string, ptr %3, i32 0, i32 2
  %5 = load i32, ptr %4, align 4, !tbaa !10
  %6 = lshr i32 %5, 1
  ret i32 %6
}

; Function Attrs: nounwind uwtable
define internal ptr @jvp_string_ptr(i64 %0, ptr %1) #0 {
  %3 = alloca %struct.jv, align 8
  %4 = getelementptr inbounds nuw { i64, ptr }, ptr %3, i32 0, i32 0
  store i64 %0, ptr %4, align 8
  %5 = getelementptr inbounds nuw { i64, ptr }, ptr %3, i32 0, i32 1
  store ptr %1, ptr %5, align 8
  %6 = getelementptr inbounds nuw %struct.jv, ptr %3, i32 0, i32 4
  %7 = load ptr, ptr %6, align 8, !tbaa !12
  ret ptr %7
}

; Function Attrs: nounwind uwtable
define internal i32 @jvp_string_hash(i64 %0, ptr %1) #0 {
  %3 = alloca i32, align 4
  %4 = alloca %struct.jv, align 8
  %5 = alloca ptr, align 8
  %6 = alloca i32, align 4
  %7 = alloca ptr, align 8
  %8 = alloca i32, align 4
  %9 = alloca i32, align 4
  %10 = alloca i32, align 4
  %11 = alloca i32, align 4
  %12 = alloca i32, align 4
  %13 = alloca ptr, align 8
  %14 = alloca i32, align 4
  %15 = alloca i32, align 4
  %16 = alloca ptr, align 8
  %17 = alloca i32, align 4
  %18 = getelementptr inbounds nuw { i64, ptr }, ptr %4, i32 0, i32 0
  store i64 %0, ptr %18, align 8
  %19 = getelementptr inbounds nuw { i64, ptr }, ptr %4, i32 0, i32 1
  store ptr %1, ptr %19, align 8
  call void @llvm.lifetime.start.p0(i64 8, ptr %5) #11
  %20 = getelementptr inbounds nuw { i64, ptr }, ptr %4, i32 0, i32 0
  %21 = load i64, ptr %20, align 8
  %22 = getelementptr inbounds nuw { i64, ptr }, ptr %4, i32 0, i32 1
  %23 = load ptr, ptr %22, align 8
  %24 = call ptr @jvp_string_ptr(i64 %21, ptr %23)
  store ptr %24, ptr %5, align 8, !tbaa !14
  %25 = load ptr, ptr %5, align 8, !tbaa !14
  %26 = getelementptr inbounds nuw %struct.jvp_string, ptr %25, i32 0, i32 2
  %27 = load i32, ptr %26, align 4, !tbaa !10
  %28 = and i32 %27, 1
  %29 = icmp ne i32 %28, 0
  br i1 %29, label %30, label %34

30:                                               ; preds = %2
  %31 = load ptr, ptr %5, align 8, !tbaa !14
  %32 = getelementptr inbounds nuw %struct.jvp_string, ptr %31, i32 0, i32 1
  %33 = load i32, ptr %32, align 4, !tbaa !10
  store i32 %33, ptr %3, align 4
  store i32 1, ptr %6, align 4
  br label %144

34:                                               ; preds = %2
  call void @llvm.lifetime.start.p0(i64 8, ptr %7) #11
  %35 = load ptr, ptr %5, align 8, !tbaa !14
  %36 = getelementptr inbounds nuw %struct.jvp_string, ptr %35, i32 0, i32 4
  %37 = getelementptr inbounds [0 x i8], ptr %36, i64 0, i64 0
  store ptr %37, ptr %7, align 8, !tbaa !30
  call void @llvm.lifetime.start.p0(i64 4, ptr %8) #11
  %38 = load ptr, ptr %5, align 8, !tbaa !14
  %39 = call i32 @jvp_string_length(ptr noundef %38)
  store i32 %39, ptr %8, align 4, !tbaa !10
  call void @llvm.lifetime.start.p0(i64 4, ptr %9) #11
  %40 = load i32, ptr %8, align 4, !tbaa !10
  %41 = sdiv i32 %40, 4
  store i32 %41, ptr %9, align 4, !tbaa !10
  call void @llvm.lifetime.start.p0(i64 4, ptr %10) #11
  store i32 1126864963, ptr %10, align 4, !tbaa !10
  call void @llvm.lifetime.start.p0(i64 4, ptr %11) #11
  store i32 -862048943, ptr %11, align 4, !tbaa !10
  call void @llvm.lifetime.start.p0(i64 4, ptr %12) #11
  store i32 461845907, ptr %12, align 4, !tbaa !10
  call void @llvm.lifetime.start.p0(i64 8, ptr %13) #11
  %42 = load ptr, ptr %7, align 8, !tbaa !30
  %43 = load i32, ptr %9, align 4, !tbaa !10
  %44 = mul nsw i32 %43, 4
  %45 = sext i32 %44 to i64
  %46 = getelementptr inbounds i8, ptr %42, i64 %45
  store ptr %46, ptr %13, align 8, !tbaa !37
  call void @llvm.lifetime.start.p0(i64 4, ptr %14) #11
  %47 = load i32, ptr %9, align 4, !tbaa !10
  %48 = sub nsw i32 0, %47
  store i32 %48, ptr %14, align 4, !tbaa !10
  br label %49

49:                                               ; preds = %73, %34
  %50 = load i32, ptr %14, align 4, !tbaa !10
  %51 = icmp ne i32 %50, 0
  br i1 %51, label %53, label %52

52:                                               ; preds = %49
  store i32 2, ptr %6, align 4
  call void @llvm.lifetime.end.p0(i64 4, ptr %14) #11
  br label %76

53:                                               ; preds = %49
  call void @llvm.lifetime.start.p0(i64 4, ptr %15) #11
  %54 = load ptr, ptr %13, align 8, !tbaa !37
  %55 = load i32, ptr %14, align 4, !tbaa !10
  %56 = sext i32 %55 to i64
  %57 = getelementptr inbounds i32, ptr %54, i64 %56
  %58 = load i32, ptr %57, align 4, !tbaa !10
  store i32 %58, ptr %15, align 4, !tbaa !10
  %59 = load i32, ptr %15, align 4, !tbaa !10
  %60 = mul i32 %59, -862048943
  store i32 %60, ptr %15, align 4, !tbaa !10
  %61 = load i32, ptr %15, align 4, !tbaa !10
  %62 = call i32 @rotl32(i32 noundef %61, i8 noundef signext 15)
  store i32 %62, ptr %15, align 4, !tbaa !10
  %63 = load i32, ptr %15, align 4, !tbaa !10
  %64 = mul i32 %63, 461845907
  store i32 %64, ptr %15, align 4, !tbaa !10
  %65 = load i32, ptr %15, align 4, !tbaa !10
  %66 = load i32, ptr %10, align 4, !tbaa !10
  %67 = xor i32 %66, %65
  store i32 %67, ptr %10, align 4, !tbaa !10
  %68 = load i32, ptr %10, align 4, !tbaa !10
  %69 = call i32 @rotl32(i32 noundef %68, i8 noundef signext 13)
  store i32 %69, ptr %10, align 4, !tbaa !10
  %70 = load i32, ptr %10, align 4, !tbaa !10
  %71 = mul i32 %70, 5
  %72 = add i32 %71, -430675100
  store i32 %72, ptr %10, align 4, !tbaa !10
  call void @llvm.lifetime.end.p0(i64 4, ptr %15) #11
  br label %73

73:                                               ; preds = %53
  %74 = load i32, ptr %14, align 4, !tbaa !10
  %75 = add nsw i32 %74, 1
  store i32 %75, ptr %14, align 4, !tbaa !10
  br label %49, !llvm.loop !63

76:                                               ; preds = %52
  call void @llvm.lifetime.start.p0(i64 8, ptr %16) #11
  %77 = load ptr, ptr %7, align 8, !tbaa !30
  %78 = load i32, ptr %9, align 4, !tbaa !10
  %79 = mul nsw i32 %78, 4
  %80 = sext i32 %79 to i64
  %81 = getelementptr inbounds i8, ptr %77, i64 %80
  store ptr %81, ptr %16, align 8, !tbaa !30
  call void @llvm.lifetime.start.p0(i64 4, ptr %17) #11
  store i32 0, ptr %17, align 4, !tbaa !10
  %82 = load i32, ptr %8, align 4, !tbaa !10
  %83 = and i32 %82, 3
  switch i32 %83, label %116 [
    i32 3, label %84
    i32 2, label %92
    i32 1, label %100
  ]

84:                                               ; preds = %76
  %85 = load ptr, ptr %16, align 8, !tbaa !30
  %86 = getelementptr inbounds i8, ptr %85, i64 2
  %87 = load i8, ptr %86, align 1, !tbaa !12
  %88 = zext i8 %87 to i32
  %89 = shl i32 %88, 16
  %90 = load i32, ptr %17, align 4, !tbaa !10
  %91 = xor i32 %90, %89
  store i32 %91, ptr %17, align 4, !tbaa !10
  br label %92

92:                                               ; preds = %76, %84
  %93 = load ptr, ptr %16, align 8, !tbaa !30
  %94 = getelementptr inbounds i8, ptr %93, i64 1
  %95 = load i8, ptr %94, align 1, !tbaa !12
  %96 = zext i8 %95 to i32
  %97 = shl i32 %96, 8
  %98 = load i32, ptr %17, align 4, !tbaa !10
  %99 = xor i32 %98, %97
  store i32 %99, ptr %17, align 4, !tbaa !10
  br label %100

100:                                              ; preds = %76, %92
  %101 = load ptr, ptr %16, align 8, !tbaa !30
  %102 = getelementptr inbounds i8, ptr %101, i64 0
  %103 = load i8, ptr %102, align 1, !tbaa !12
  %104 = zext i8 %103 to i32
  %105 = load i32, ptr %17, align 4, !tbaa !10
  %106 = xor i32 %105, %104
  store i32 %106, ptr %17, align 4, !tbaa !10
  %107 = load i32, ptr %17, align 4, !tbaa !10
  %108 = mul i32 %107, -862048943
  store i32 %108, ptr %17, align 4, !tbaa !10
  %109 = load i32, ptr %17, align 4, !tbaa !10
  %110 = call i32 @rotl32(i32 noundef %109, i8 noundef signext 15)
  store i32 %110, ptr %17, align 4, !tbaa !10
  %111 = load i32, ptr %17, align 4, !tbaa !10
  %112 = mul i32 %111, 461845907
  store i32 %112, ptr %17, align 4, !tbaa !10
  %113 = load i32, ptr %17, align 4, !tbaa !10
  %114 = load i32, ptr %10, align 4, !tbaa !10
  %115 = xor i32 %114, %113
  store i32 %115, ptr %10, align 4, !tbaa !10
  br label %116

116:                                              ; preds = %100, %76
  %117 = load i32, ptr %8, align 4, !tbaa !10
  %118 = load i32, ptr %10, align 4, !tbaa !10
  %119 = xor i32 %118, %117
  store i32 %119, ptr %10, align 4, !tbaa !10
  %120 = load i32, ptr %10, align 4, !tbaa !10
  %121 = lshr i32 %120, 16
  %122 = load i32, ptr %10, align 4, !tbaa !10
  %123 = xor i32 %122, %121
  store i32 %123, ptr %10, align 4, !tbaa !10
  %124 = load i32, ptr %10, align 4, !tbaa !10
  %125 = mul i32 %124, -2048144789
  store i32 %125, ptr %10, align 4, !tbaa !10
  %126 = load i32, ptr %10, align 4, !tbaa !10
  %127 = lshr i32 %126, 13
  %128 = load i32, ptr %10, align 4, !tbaa !10
  %129 = xor i32 %128, %127
  store i32 %129, ptr %10, align 4, !tbaa !10
  %130 = load i32, ptr %10, align 4, !tbaa !10
  %131 = mul i32 %130, -1028477387
  store i32 %131, ptr %10, align 4, !tbaa !10
  %132 = load i32, ptr %10, align 4, !tbaa !10
  %133 = lshr i32 %132, 16
  %134 = load i32, ptr %10, align 4, !tbaa !10
  %135 = xor i32 %134, %133
  store i32 %135, ptr %10, align 4, !tbaa !10
  %136 = load ptr, ptr %5, align 8, !tbaa !14
  %137 = getelementptr inbounds nuw %struct.jvp_string, ptr %136, i32 0, i32 2
  %138 = load i32, ptr %137, align 4, !tbaa !10
  %139 = or i32 %138, 1
  store i32 %139, ptr %137, align 4, !tbaa !10
  %140 = load i32, ptr %10, align 4, !tbaa !10
  %141 = load ptr, ptr %5, align 8, !tbaa !14
  %142 = getelementptr inbounds nuw %struct.jvp_string, ptr %141, i32 0, i32 1
  store i32 %140, ptr %142, align 4, !tbaa !10
  %143 = load i32, ptr %10, align 4, !tbaa !10
  store i32 %143, ptr %3, align 4
  store i32 1, ptr %6, align 4
  call void @llvm.lifetime.end.p0(i64 4, ptr %17) #11
  call void @llvm.lifetime.end.p0(i64 8, ptr %16) #11
  call void @llvm.lifetime.end.p0(i64 8, ptr %13) #11
  call void @llvm.lifetime.end.p0(i64 4, ptr %12) #11
  call void @llvm.lifetime.end.p0(i64 4, ptr %11) #11
  call void @llvm.lifetime.end.p0(i64 4, ptr %10) #11
  call void @llvm.lifetime.end.p0(i64 4, ptr %9) #11
  call void @llvm.lifetime.end.p0(i64 4, ptr %8) #11
  call void @llvm.lifetime.end.p0(i64 8, ptr %7) #11
  br label %144

144:                                              ; preds = %116, %30
  call void @llvm.lifetime.end.p0(i64 8, ptr %5) #11
  %145 = load i32, ptr %3, align 4
  ret i32 %145
}

; Function Attrs: nounwind uwtable
define dso_local i64 @jv_string_hash(i64 %0, ptr %1) #0 {
  %3 = alloca %struct.jv, align 8
  %4 = alloca i32, align 4
  %5 = getelementptr inbounds nuw { i64, ptr }, ptr %3, i32 0, i32 0
  store i64 %0, ptr %5, align 8
  %6 = getelementptr inbounds nuw { i64, ptr }, ptr %3, i32 0, i32 1
  store ptr %1, ptr %6, align 8
  call void @llvm.lifetime.start.p0(i64 4, ptr %4) #11
  %7 = getelementptr inbounds nuw { i64, ptr }, ptr %3, i32 0, i32 0
  %8 = load i64, ptr %7, align 8
  %9 = getelementptr inbounds nuw { i64, ptr }, ptr %3, i32 0, i32 1
  %10 = load ptr, ptr %9, align 8
  %11 = call i32 @jvp_string_hash(i64 %8, ptr %10)
  store i32 %11, ptr %4, align 4, !tbaa !10
  %12 = getelementptr inbounds nuw { i64, ptr }, ptr %3, i32 0, i32 0
  %13 = load i64, ptr %12, align 8
  %14 = getelementptr inbounds nuw { i64, ptr }, ptr %3, i32 0, i32 1
  %15 = load ptr, ptr %14, align 8
  call void @jv_free(i64 %13, ptr %15)
  %16 = load i32, ptr %4, align 4, !tbaa !10
  %17 = zext i32 %16 to i64
  call void @llvm.lifetime.end.p0(i64 4, ptr %4) #11
  ret i64 %17
}