; Function Attrs: nounwind uwtable
define dso_local range(i64 0, 4294967296) i64 @jv_string_hash(i64 %0, ptr %1) local_unnamed_addr #2 {
  %3 = getelementptr inbounds nuw i8, ptr %1, i64 8
  %4 = load i32, ptr %3, align 4, !tbaa !4
  %5 = and i32 %4, 1
  %.not.i = icmp eq i32 %5, 0
  br i1 %.not.i, label %9, label %6

6:                                                ; preds = %2
  %7 = getelementptr inbounds nuw i8, ptr %1, i64 4
  %8 = load i32, ptr %7, align 4, !tbaa !4
  br label %jvp_string_hash.exit

9:                                                ; preds = %2
  %10 = getelementptr inbounds nuw i8, ptr %1, i64 16
  %11 = lshr exact i32 %4, 1
  %12 = and i32 %11, 2147483644
  %13 = zext nneg i32 %12 to i64
  %14 = getelementptr inbounds nuw i8, ptr %10, i64 %13
  %.not5152.i = icmp ult i32 %4, 8
  br i1 %.not5152.i, label %._crit_edge.i, label %.lr.ph.preheader.i

.lr.ph.preheader.i:                               ; preds = %9
  %15 = lshr i32 %4, 3
  %16 = sub nsw i32 0, %15
  %17 = sext i32 %16 to i64
  br label %.lr.ph.i

._crit_edge.i:                                    ; preds = %.lr.ph.i, %9
  %.049.lcssa.i = phi i32 [ 1126864963, %9 ], [ %27, %.lr.ph.i ]
  %18 = and i32 %11, 3
  switch i32 %18, label %default.unreachable [
    i32 3, label %29
    i32 2, label %34
    i32 1, label %40
    i32 0, label %48
  ]

.lr.ph.i:                                         ; preds = %.lr.ph.i, %.lr.ph.preheader.i
  %indvars.iv.i = phi i64 [ %17, %.lr.ph.preheader.i ], [ %indvars.iv.next.i, %.lr.ph.i ]
  %.04953.i = phi i32 [ 1126864963, %.lr.ph.preheader.i ], [ %27, %.lr.ph.i ]
  %19 = getelementptr inbounds i32, ptr %14, i64 %indvars.iv.i
  %20 = load i32, ptr %19, align 4, !tbaa !4
  %21 = mul i32 %20, -862048943
  %22 = tail call i32 @llvm.fshl.i32(i32 %21, i32 %21, i32 15)
  %23 = mul i32 %22, 461845907
  %24 = xor i32 %23, %.04953.i
  %25 = tail call i32 @llvm.fshl.i32(i32 %24, i32 %24, i32 13)
  %26 = mul i32 %25, 5
  %27 = add i32 %26, -430675100
  %indvars.iv.next.i = add nsw i64 %indvars.iv.i, 1
  %28 = icmp eq i64 %indvars.iv.next.i, 0
  br i1 %28, label %._crit_edge.i, label %.lr.ph.i, !llvm.loop !55

29:                                               ; preds = %._crit_edge.i
  %30 = getelementptr inbounds nuw i8, ptr %14, i64 2
  %31 = load i8, ptr %30, align 1, !tbaa !8
  %32 = zext i8 %31 to i32
  %33 = shl nuw nsw i32 %32, 16
  br label %34

34:                                               ; preds = %29, %._crit_edge.i
  %.0.i = phi i32 [ 0, %._crit_edge.i ], [ %33, %29 ]
  %35 = getelementptr inbounds nuw i8, ptr %14, i64 1
  %36 = load i8, ptr %35, align 1, !tbaa !8
  %37 = zext i8 %36 to i32
  %38 = shl nuw nsw i32 %37, 8
  %39 = or disjoint i32 %38, %.0.i
  br label %40

40:                                               ; preds = %34, %._crit_edge.i
  %.1.i = phi i32 [ 0, %._crit_edge.i ], [ %39, %34 ]
  %41 = load i8, ptr %14, align 1, !tbaa !8
  %42 = zext i8 %41 to i32
  %43 = xor i32 %.1.i, %42
  %44 = mul i32 %43, -862048943
  %45 = tail call i32 @llvm.fshl.i32(i32 %44, i32 %44, i32 15)
  %46 = mul i32 %45, 461845907
  %47 = xor i32 %46, %.049.lcssa.i
  br label %48

default.unreachable:                              ; preds = %._crit_edge.i
  unreachable

48:                                               ; preds = %40, %._crit_edge.i
  %.150.i = phi i32 [ %.049.lcssa.i, %._crit_edge.i ], [ %47, %40 ]
  %49 = xor i32 %.150.i, %11
  %50 = lshr i32 %49, 16
  %51 = xor i32 %50, %49
  %52 = mul i32 %51, -2048144789
  %53 = lshr i32 %52, 13
  %54 = xor i32 %53, %52
  %55 = mul i32 %54, -1028477387
  %56 = lshr i32 %55, 16
  %57 = xor i32 %56, %55
  %58 = or disjoint i32 %4, 1
  store i32 %58, ptr %3, align 4, !tbaa !4
  %59 = getelementptr inbounds nuw i8, ptr %1, i64 4
  store i32 %57, ptr %59, align 4, !tbaa !4
  br label %jvp_string_hash.exit

jvp_string_hash.exit:                             ; preds = %6, %48
  %.047.i = phi i32 [ %8, %6 ], [ %57, %48 ]
  tail call void @jv_free(i64 %0, ptr nonnull %1)
  %60 = zext i32 %.047.i to i64
  ret i64 %60
}